; Function Attrs: nounwind uwtable
define dso_local i32 @get_func_signature(i32 noundef %0, ptr noundef writeonly captures(none) %1, ptr noundef captures(none) %2) local_unnamed_addr #0 {
  %4 = zext i32 %0 to i64
  %5 = tail call ptr @SearchSysCache1(i32 noundef 47, i64 noundef %4) #8
  %.not = icmp eq ptr %5, null
  br i1 %.not, label %6, label %9

6:                                                ; preds = %3
  %7 = tail call zeroext i1 @errstart_cold(i32 noundef 21, ptr noundef null) #9
  tail call void @llvm.assume(i1 %7)
  %8 = tail call i32 (ptr, ...) @errmsg_internal(ptr noundef nonnull @.str.11, i32 noundef %0) #8
  tail call void @errfinish(ptr noundef nonnull @.str.1, i32 noundef 1731, ptr noundef nonnull @__func__.get_func_signature) #8
  unreachable

9:                                                ; preds = %3
  %10 = getelementptr i8, ptr %5, i64 16
  %.val = load ptr, ptr %10, align 8
  %11 = getelementptr inbounds nuw i8, ptr %.val, i64 22
  %12 = load i8, ptr %11, align 2
  %13 = zext i8 %12 to i64
  %14 = getelementptr inbounds nuw i8, ptr %.val, i64 %13
  %15 = getelementptr inbounds nuw i8, ptr %14, i64 108
  %16 = load i32, ptr %15, align 4
  %17 = getelementptr inbounds nuw i8, ptr %14, i64 104
  %18 = load i16, ptr %17, align 4
  %19 = sext i16 %18 to i32
  store i32 %19, ptr %2, align 4
  %20 = sext i16 %18 to i64
  %21 = shl nsw i64 %20, 2
  %22 = tail call ptr @palloc(i64 noundef %21) #8
  store ptr %22, ptr %1, align 8
  %23 = getelementptr inbounds nuw i8, ptr %14, i64 136
  %24 = load i32, ptr %2, align 4
  %25 = sext i32 %24 to i64
  %26 = shl nsw i64 %25, 2
  tail call void @llvm.memcpy.p0.p0.i64(ptr align 4 %22, ptr nonnull align 4 %23, i64 %26, i1 false)
  tail call void @ReleaseSysCache(ptr noundef nonnull %5) #8
  ret i32 %16
}